target datalayout = "e-m:e-p270:32:32-p271:32:32-p272:64:64-i64:64-i128:128-f80:128-n8:16:32:64-S128"
target triple = "x86_64-pc-linux-gnu"

%struct.statement = type { i32, ptr, ptr, ptr, i32, i8, i32, i8, ptr, ptr, ptr, i32, ptr, ptr, ptr, ptr }
%struct.variable = type { i32, ptr, ptr, i64, i64, i64, i32, ptr, ptr, i64, i64, i64, ptr }

; Function Attrs: nounwind uwtable
define internal void @free_variable(ptr noundef %0) #0 {
  %2 = alloca ptr, align 8
  %3 = alloca ptr, align 8
  store ptr %0, ptr %2, align 8
  call void @llvm.lifetime.start.p0(i64 8, ptr %3) #10
  br label %4

4:                                                ; preds = %7, %1
  %5 = load ptr, ptr %2, align 8
  %6 = icmp ne ptr %5, null
  br i1 %6, label %7, label %13

7:                                                ; preds = %4
  %8 = load ptr, ptr %2, align 8
  %9 = getelementptr inbounds nuw %struct.variable, ptr %8, i32 0, i32 12
  %10 = load ptr, ptr %9, align 8
  store ptr %10, ptr %3, align 8
  %11 = load ptr, ptr %2, align 8
  call void @ecpg_free(ptr noundef %11)
  %12 = load ptr, ptr %3, align 8
  store ptr %12, ptr %2, align 8
  br label %4, !llvm.loop !45

13:                                               ; preds = %4
  call void @llvm.lifetime.end.p0(i64 8, ptr %3) #10
  ret void
}

; Function Attrs: nounwind uwtable
define internal void @free_statement(ptr noundef %0) #0 {
  %2 = alloca ptr, align 8
  store ptr %0, ptr %2, align 8
  %3 = load ptr, ptr %2, align 8
  %4 = icmp eq ptr %3, null
  br i1 %4, label %5, label %6

5:                                                ; preds = %1
  br label %20

6:                                                ; preds = %1
  %7 = load ptr, ptr %2, align 8
  %8 = getelementptr inbounds nuw %struct.statement, ptr %7, i32 0, i32 8
  %9 = load ptr, ptr %8, align 8
  call void @free_variable(ptr noundef %9)
  %10 = load ptr, ptr %2, align 8
  %11 = getelementptr inbounds nuw %struct.statement, ptr %10, i32 0, i32 9
  %12 = load ptr, ptr %11, align 8
  call void @free_variable(ptr noundef %12)
  %13 = load ptr, ptr %2, align 8
  %14 = getelementptr inbounds nuw %struct.statement, ptr %13, i32 0, i32 1
  %15 = load ptr, ptr %14, align 8
  call void @ecpg_free(ptr noundef %15)
  %16 = load ptr, ptr %2, align 8
  %17 = getelementptr inbounds nuw %struct.statement, ptr %16, i32 0, i32 2
  %18 = load ptr, ptr %17, align 8
  call void @ecpg_free(ptr noundef %18)
  %19 = load ptr, ptr %2, align 8
  call void @ecpg_free(ptr noundef %19)
  br label %20

20:                                               ; preds = %6, %5
  ret void
}

; Function Attrs: nounwind uwtable
define void @ecpg_do_epilogue(ptr noundef %0) #0 {
  %2 = alloca ptr, align 8
  store ptr %0, ptr %2, align 8
  %3 = load ptr, ptr %2, align 8
  %4 = icmp eq ptr %3, null
  br i1 %4, label %5, label %6

5:                                                ; preds = %1
  br label %18

6:                                                ; preds = %1
  %7 = load ptr, ptr %2, align 8
  %8 = getelementptr inbounds nuw %struct.statement, ptr %7, i32 0, i32 10
  %9 = load ptr, ptr %8, align 8
  %10 = icmp ne ptr %9, null
  br i1 %10, label %11, label %16

11:                                               ; preds = %6
  %12 = load ptr, ptr %2, align 8
  %13 = getelementptr inbounds nuw %struct.statement, ptr %12, i32 0, i32 10
  %14 = load ptr, ptr %13, align 8
  %15 = call ptr @uselocale(ptr noundef %14) #10
  br label %16

16:                                               ; preds = %11, %6
  %17 = load ptr, ptr %2, align 8
  call void @free_statement(ptr noundef %17)
  br label %18

18:                                               ; preds = %16, %5
  ret void
}