; Function Attrs: nounwind uwtable
define void @ecpg_do_epilogue(ptr noundef %0) local_unnamed_addr #0 {
  %2 = icmp eq ptr %0, null
  br i1 %2, label %21, label %3

3:                                                ; preds = %1
  %4 = getelementptr inbounds nuw i8, ptr %0, i64 64
  %5 = load ptr, ptr %4, align 8
  %.not = icmp eq ptr %5, null
  br i1 %.not, label %8, label %6

6:                                                ; preds = %3
  %7 = tail call ptr @uselocale(ptr noundef nonnull %5) #14
  br label %8

8:                                                ; preds = %6, %3
  %9 = getelementptr inbounds nuw i8, ptr %0, i64 48
  %10 = load ptr, ptr %9, align 8
  %.not4.i.i = icmp eq ptr %10, null
  br i1 %.not4.i.i, label %free_variable.exit.i, label %.lr.ph.i.i

.lr.ph.i.i:                                       ; preds = %8, %.lr.ph.i.i
  %.05.i.i = phi ptr [ %12, %.lr.ph.i.i ], [ %10, %8 ]
  %11 = getelementptr inbounds nuw i8, ptr %.05.i.i, i64 96
  %12 = load ptr, ptr %11, align 8
  tail call void @ecpg_free(ptr noundef nonnull %.05.i.i) #14
  %.not.i.i = icmp eq ptr %12, null
  br i1 %.not.i.i, label %free_variable.exit.i, label %.lr.ph.i.i, !llvm.loop !43

free_variable.exit.i:                             ; preds = %.lr.ph.i.i, %8
  %13 = getelementptr inbounds nuw i8, ptr %0, i64 56
  %14 = load ptr, ptr %13, align 8
  %.not4.i6.i = icmp eq ptr %14, null
  br i1 %.not4.i6.i, label %free_statement.exit, label %.lr.ph.i7.i

.lr.ph.i7.i:                                      ; preds = %free_variable.exit.i, %.lr.ph.i7.i
  %.05.i8.i = phi ptr [ %16, %.lr.ph.i7.i ], [ %14, %free_variable.exit.i ]
  %15 = getelementptr inbounds nuw i8, ptr %.05.i8.i, i64 96
  %16 = load ptr, ptr %15, align 8
  tail call void @ecpg_free(ptr noundef nonnull %.05.i8.i) #14
  %.not.i9.i = icmp eq ptr %16, null
  br i1 %.not.i9.i, label %free_statement.exit, label %.lr.ph.i7.i, !llvm.loop !43

free_statement.exit:                              ; preds = %.lr.ph.i7.i, %free_variable.exit.i
  %17 = getelementptr inbounds nuw i8, ptr %0, i64 8
  %18 = load ptr, ptr %17, align 8
  tail call void @ecpg_free(ptr noundef %18) #14
  %19 = getelementptr inbounds nuw i8, ptr %0, i64 16
  %20 = load ptr, ptr %19, align 8
  tail call void @ecpg_free(ptr noundef %20) #14
  tail call void @ecpg_free(ptr noundef nonnull %0) #14
  br label %21

21:                                               ; preds = %1, %free_statement.exit
  ret void
}